; Function Attrs: mustprogress nofree norecurse nosync nounwind willreturn memory(argmem: read) uwtable
define range(i32 0, 2) i32 @ff_inoutlink_check_flow(ptr noundef readonly captures(none) %0, ptr noundef readonly captures(none) %1) local_unnamed_addr #8 {
  %3 = getelementptr inbounds nuw i8, ptr %1, i64 388
  %4 = load i32, ptr %3, align 4, !tbaa !65
  %.not = icmp eq i32 %4, 0
  br i1 %.not, label %5, label %12

5:                                                ; preds = %2
  %6 = getelementptr i8, ptr %0, i64 312
  %.val.i = load i64, ptr %6, align 8, !tbaa !100
  %.not5 = icmp eq i64 %.val.i, 0
  br i1 %.not5, label %7, label %12

7:                                                ; preds = %5
  %8 = getelementptr inbounds nuw i8, ptr %0, i64 384
  %9 = load i32, ptr %8, align 8, !tbaa !99
  %10 = icmp ne i32 %9, 0
  %11 = zext i1 %10 to i32
  br label %12

12:                                               ; preds = %7, %5, %2
  %13 = phi i32 [ 1, %5 ], [ 1, %2 ], [ %11, %7 ]
  ret i32 %13
}